(i__main__
LogFile
p0
(dp1
S'_installed_files'
p2
(dp3
S'../../../AddLayerSvc/AddLayerSvc-00-00-01/x86_64-slc6-gcc46-opt/libAddLayerSvc.so'
p4
S'../../../InstallArea/x86_64-slc6-gcc46-opt/lib/libAddLayerSvc.so'
p5
ssb.