(i__main__
LogFile
p0
(dp1
S'_installed_files'
p2
(dp3
S'../../../../../../../../../../cvmfs/bes3.ihep.ac.cn/bes3sw/Boss/7.0.5/Generator/Bhwide/Bhwide-00-00-11/x86_64-slc6-gcc46-opt/libbhwide.so'
p4
S'../x86_64-slc6-gcc46-opt/libbhwide.so'
p5
sS'../../../../../../../../../../cvmfs/bes3.ihep.ac.cn/bes3sw/ExternalLib/SLC6/ExternalLib/gaudi/GAUDI_v23r9/GaudiSvc/x86_64-slc6-gcc46-opt/libGaudiSvc.so'
p6
S'../x86_64-slc6-gcc46-opt/libGaudiSvc.so'
p7
sS'../../../../../../../../../../cvmfs/bes3.ihep.ac.cn/bes3sw/Boss/7.0.5/Generator/KKMC/KKMC-00-00-62/x86_64-slc6-gcc46-opt/libkkmc.so'
p8
S'../x86_64-slc6-gcc46-opt/libkkmc.so'
p9
sS'../../../../../../../../../../cvmfs/bes3.ihep.ac.cn/bes3sw/ExternalLib/SLC6/ExternalLib/gaudi/GAUDI_v23r9/GaudiCoreSvc/x86_64-slc6-gcc46-opt/libGaudiCoreSvc.so'
p10
S'../x86_64-slc6-gcc46-opt/libGaudiCoreSvc.so'
p11
ssb.